; ModuleID = '11/164.c'
source_filename = "11/164.c"
target datalayout = "e-m:e-p270:32:32-p271:32:32-p272:64:64-i64:64-f80:128-n8:16:32:64-S128"
target triple = "x86_64-pc-linux-gnu"

@.str = private unnamed_addr constant [9 x i8] c"%d %d %d\00", align 1
@__const.main.month = private unnamed_addr constant [13 x i32] [i32 0, i32 31, i32 28, i32 31, i32 30, i32 31, i32 30, i32 31, i32 31, i32 30, i32 31, i32 30, i32 31], align 16
@__const.main.month.1 = private unnamed_addr constant [13 x i32] [i32 0, i32 31, i32 28, i32 31, i32 30, i32 31, i32 30, i32 31, i32 31, i32 30, i32 31, i32 30, i32 31], align 16
@.str.2 = private unnamed_addr constant [4 x i8] c"%d\0A\00", align 1

; Function Attrs: noinline nounwind uwtable
define dso_local i32 @main() #0 {
  %1 = alloca i32, align 4
  %2 = alloca i32, align 4
  %3 = alloca i32, align 4
  %4 = alloca i32, align 4
  %5 = alloca i32, align 4
  %6 = alloca i32, align 4
  %7 = alloca [13 x i32], align 16
  %8 = alloca [13 x i32], align 16
  store i32 0, i32* %1, align 4
  store i32 0, i32* %2, align 4
  store i32 0, i32* %3, align 4
  store i32 0, i32* %4, align 4
  %9 = call i32 (i8*, ...) @__isoc99_scanf(i8* getelementptr inbounds ([9 x i8], [9 x i8]* @.str, i64 0, i64 0), i32* %2, i32* %3, i32* %4)
  store i32 0, i32* %5, align 4
  %10 = load i32, i32* %2, align 4
  %11 = srem i32 %10, 4
  %12 = icmp eq i32 %11, 0
  br i1 %12, label %13, label %33

13:                                               ; preds = %0
  %14 = bitcast [13 x i32]* %7 to i8*
  call void @llvm.memcpy.p0i8.p0i8.i64(i8* align 16 %14, i8* align 16 bitcast ([13 x i32]* @__const.main.month to i8*), i64 52, i1 false)
  store i32 1, i32* %6, align 4
  br label %15

15:                                               ; preds = %26, %13
  %16 = load i32, i32* %6, align 4
  %17 = load i32, i32* %3, align 4
  %18 = icmp slt i32 %16, %17
  br i1 %18, label %19, label %29

19:                                               ; preds = %15
  %20 = load i32, i32* %6, align 4
  %21 = sext i32 %20 to i64
  %22 = getelementptr inbounds [13 x i32], [13 x i32]* %7, i64 0, i64 %21
  %23 = load i32, i32* %22, align 4
  %24 = load i32, i32* %5, align 4
  %25 = add nsw i32 %23, %24
  store i32 %25, i32* %5, align 4
  br label %26

26:                                               ; preds = %19
  %27 = load i32, i32* %6, align 4
  %28 = add nsw i32 %27, 1
  store i32 %28, i32* %6, align 4
  br label %15

29:                                               ; preds = %15
  %30 = load i32, i32* %4, align 4
  %31 = load i32, i32* %5, align 4
  %32 = add nsw i32 %30, %31
  store i32 %32, i32* %5, align 4
  br label %53

33:                                               ; preds = %0
  %34 = bitcast [13 x i32]* %8 to i8*
  call void @llvm.memcpy.p0i8.p0i8.i64(i8* align 16 %34, i8* align 16 bitcast ([13 x i32]* @__const.main.month.1 to i8*), i64 52, i1 false)
  store i32 1, i32* %6, align 4
  br label %35

35:                                               ; preds = %46, %33
  %36 = load i32, i32* %6, align 4
  %37 = load i32, i32* %3, align 4
  %38 = icmp slt i32 %36, %37
  br i1 %38, label %39, label %49

39:                                               ; preds = %35
  %40 = load i32, i32* %6, align 4
  %41 = sext i32 %40 to i64
  %42 = getelementptr inbounds [13 x i32], [13 x i32]* %8, i64 0, i64 %41
  %43 = load i32, i32* %42, align 4
  %44 = load i32, i32* %5, align 4
  %45 = add nsw i32 %43, %44
  store i32 %45, i32* %5, align 4
  br label %46

46:                                               ; preds = %39
  %47 = load i32, i32* %6, align 4
  %48 = add nsw i32 %47, 1
  store i32 %48, i32* %6, align 4
  br label %35

49:                                               ; preds = %35
  %50 = load i32, i32* %4, align 4
  %51 = load i32, i32* %5, align 4
  %52 = add nsw i32 %50, %51
  store i32 %52, i32* %5, align 4
  br label %53

53:                                               ; preds = %49, %29
  %54 = load i32, i32* %5, align 4
  %55 = call i32 (i8*, ...) @printf(i8* getelementptr inbounds ([4 x i8], [4 x i8]* @.str.2, i64 0, i64 0), i32 %54)
  ret i32 0
}

declare dso_local i32 @__isoc99_scanf(i8*, ...) #1

; Function Attrs: argmemonly nounwind willreturn
declare void @llvm.memcpy.p0i8.p0i8.i64(i8* noalias nocapture writeonly, i8* noalias nocapture readonly, i64, i1 immarg) #2

declare dso_local i32 @printf(i8*, ...) #1


!llvm.module.flags = !{!0}
!llvm.ident = !{!1}

!0 = !{i32 1, !"wchar_size", i32 4}
!1 = !{!"clang version 10.0.0-4ubuntu1 "}
